target datalayout = "e-m:e-p270:32:32-p271:32:32-p272:64:64-i64:64-i128:128-f80:128-n8:16:32:64-S128"
target triple = "x86_64-pc-linux-gnu"

%struct.SXNET_st = type { ptr, ptr }
%struct.SXNET_ID_st = type { ptr, ptr }

@.str.2 = private unnamed_addr constant [34 x i8] c"../openssl/crypto/x509/v3_sxnet.c\00", align 1
@__func__.SXNET_get_id_ulong = private unnamed_addr constant [19 x i8] c"SXNET_get_id_ulong\00", align 1

; Function Attrs: inlinehint nounwind uwtable
define internal ptr @ossl_check_const_SXNETID_sk_type(ptr noundef %0) #4 {
  %2 = alloca ptr, align 8
  store ptr %0, ptr %2, align 8, !tbaa !47
  %3 = load ptr, ptr %2, align 8, !tbaa !47
  ret ptr %3
}

; Function Attrs: nounwind uwtable
define ptr @SXNET_get_id_INTEGER(ptr noundef %0, ptr noundef %1) #0 {
  %3 = alloca ptr, align 8
  %4 = alloca ptr, align 8
  %5 = alloca ptr, align 8
  %6 = alloca ptr, align 8
  %7 = alloca i32, align 4
  %8 = alloca i32, align 4
  store ptr %0, ptr %4, align 8, !tbaa !12
  store ptr %1, ptr %5, align 8, !tbaa !45
  call void @llvm.lifetime.start.p0(i64 8, ptr %6) #5
  call void @llvm.lifetime.start.p0(i64 4, ptr %7) #5
  store i32 0, ptr %7, align 4, !tbaa !14
  br label %9

9:                                                ; preds = %35, %2
  %10 = load i32, ptr %7, align 4, !tbaa !14
  %11 = load ptr, ptr %4, align 8, !tbaa !12
  %12 = getelementptr inbounds nuw %struct.SXNET_st, ptr %11, i32 0, i32 1
  %13 = load ptr, ptr %12, align 8, !tbaa !31
  %14 = call ptr @ossl_check_const_SXNETID_sk_type(ptr noundef %13)
  %15 = call i32 @OPENSSL_sk_num(ptr noundef %14)
  %16 = icmp slt i32 %10, %15
  br i1 %16, label %17, label %38

17:                                               ; preds = %9
  %18 = load ptr, ptr %4, align 8, !tbaa !12
  %19 = getelementptr inbounds nuw %struct.SXNET_st, ptr %18, i32 0, i32 1
  %20 = load ptr, ptr %19, align 8, !tbaa !31
  %21 = call ptr @ossl_check_const_SXNETID_sk_type(ptr noundef %20)
  %22 = load i32, ptr %7, align 4, !tbaa !14
  %23 = call ptr @OPENSSL_sk_value(ptr noundef %21, i32 noundef %22)
  store ptr %23, ptr %6, align 8, !tbaa !32
  %24 = load ptr, ptr %6, align 8, !tbaa !32
  %25 = getelementptr inbounds nuw %struct.SXNET_ID_st, ptr %24, i32 0, i32 0
  %26 = load ptr, ptr %25, align 8, !tbaa !34
  %27 = load ptr, ptr %5, align 8, !tbaa !45
  %28 = call i32 @ASN1_INTEGER_cmp(ptr noundef %26, ptr noundef %27)
  %29 = icmp ne i32 %28, 0
  br i1 %29, label %34, label %30

30:                                               ; preds = %17
  %31 = load ptr, ptr %6, align 8, !tbaa !32
  %32 = getelementptr inbounds nuw %struct.SXNET_ID_st, ptr %31, i32 0, i32 1
  %33 = load ptr, ptr %32, align 8, !tbaa !37
  store ptr %33, ptr %3, align 8
  store i32 1, ptr %8, align 4
  br label %39

34:                                               ; preds = %17
  br label %35

35:                                               ; preds = %34
  %36 = load i32, ptr %7, align 4, !tbaa !14
  %37 = add nsw i32 %36, 1
  store i32 %37, ptr %7, align 4, !tbaa !14
  br label %9, !llvm.loop !46

38:                                               ; preds = %9
  store ptr null, ptr %3, align 8
  store i32 1, ptr %8, align 4
  br label %39

39:                                               ; preds = %38, %30
  call void @llvm.lifetime.end.p0(i64 4, ptr %7) #5
  call void @llvm.lifetime.end.p0(i64 8, ptr %6) #5
  %40 = load ptr, ptr %3, align 8
  ret ptr %40
}

; Function Attrs: nounwind uwtable
define ptr @SXNET_get_id_ulong(ptr noundef %0, i64 noundef %1) #0 {
  %3 = alloca ptr, align 8
  %4 = alloca ptr, align 8
  %5 = alloca i64, align 8
  %6 = alloca ptr, align 8
  %7 = alloca ptr, align 8
  %8 = alloca i32, align 4
  store ptr %0, ptr %4, align 8, !tbaa !12
  store i64 %1, ptr %5, align 8, !tbaa !29
  call void @llvm.lifetime.start.p0(i64 8, ptr %6) #5
  call void @llvm.lifetime.start.p0(i64 8, ptr %7) #5
  %9 = call ptr @ASN1_INTEGER_new()
  store ptr %9, ptr %6, align 8, !tbaa !45
  %10 = icmp eq ptr %9, null
  br i1 %10, label %16, label %11

11:                                               ; preds = %2
  %12 = load ptr, ptr %6, align 8, !tbaa !45
  %13 = load i64, ptr %5, align 8, !tbaa !29
  %14 = call i32 @ASN1_INTEGER_set(ptr noundef %12, i64 noundef %13)
  %15 = icmp ne i32 %14, 0
  br i1 %15, label %18, label %16

16:                                               ; preds = %11, %2
  call void @ERR_new()
  call void @ERR_set_debug(ptr noundef @.str.2, i32 noundef 240, ptr noundef @__func__.SXNET_get_id_ulong)
  call void (i32, i32, ptr, ...) @ERR_set_error(i32 noundef 34, i32 noundef 524301, ptr noundef null)
  %17 = load ptr, ptr %6, align 8, !tbaa !45
  call void @ASN1_INTEGER_free(ptr noundef %17)
  store ptr null, ptr %3, align 8
  store i32 1, ptr %8, align 4
  br label %24

18:                                               ; preds = %11
  %19 = load ptr, ptr %4, align 8, !tbaa !12
  %20 = load ptr, ptr %6, align 8, !tbaa !45
  %21 = call ptr @SXNET_get_id_INTEGER(ptr noundef %19, ptr noundef %20)
  store ptr %21, ptr %7, align 8, !tbaa !45
  %22 = load ptr, ptr %6, align 8, !tbaa !45
  call void @ASN1_INTEGER_free(ptr noundef %22)
  %23 = load ptr, ptr %7, align 8, !tbaa !45
  store ptr %23, ptr %3, align 8
  store i32 1, ptr %8, align 4
  br label %24

24:                                               ; preds = %18, %16
  call void @llvm.lifetime.end.p0(i64 8, ptr %7) #5
  call void @llvm.lifetime.end.p0(i64 8, ptr %6) #5
  %25 = load ptr, ptr %3, align 8
  ret ptr %25
}