; Function Attrs: nounwind uwtable
define ptr @SXNET_get_id_ulong(ptr noundef readonly captures(none) %0, i64 noundef %1) local_unnamed_addr #1 {
  %3 = tail call ptr @ASN1_INTEGER_new() #5
  %4 = icmp eq ptr %3, null
  br i1 %4, label %7, label %5

5:                                                ; preds = %2
  %6 = tail call i32 @ASN1_INTEGER_set(ptr noundef nonnull %3, i64 noundef %1) #5
  %.not = icmp eq i32 %6, 0
  br i1 %.not, label %7, label %8

7:                                                ; preds = %5, %2
  tail call void @ERR_new() #5
  tail call void @ERR_set_debug(ptr noundef nonnull @.str.2, i32 noundef 240, ptr noundef nonnull @__func__.SXNET_get_id_ulong) #5
  tail call void (i32, i32, ptr, ...) @ERR_set_error(i32 noundef 34, i32 noundef 524301, ptr noundef null) #5
  br label %SXNET_get_id_INTEGER.exit

8:                                                ; preds = %5
  %9 = getelementptr inbounds nuw i8, ptr %0, i64 8
  %10 = load ptr, ptr %9, align 8, !tbaa !18
  %11 = tail call i32 @OPENSSL_sk_num(ptr noundef %10) #5
  %12 = icmp sgt i32 %11, 0
  br i1 %12, label %.lr.ph.i, label %SXNET_get_id_INTEGER.exit

13:                                               ; preds = %.lr.ph.i
  %14 = add nuw nsw i32 %.09.i, 1
  %15 = load ptr, ptr %9, align 8, !tbaa !18
  %16 = tail call i32 @OPENSSL_sk_num(ptr noundef %15) #5
  %17 = icmp slt i32 %14, %16
  br i1 %17, label %.lr.ph.i, label %SXNET_get_id_INTEGER.exit, !llvm.loop !23

.lr.ph.i:                                         ; preds = %8, %13
  %.09.i = phi i32 [ %14, %13 ], [ 0, %8 ]
  %18 = load ptr, ptr %9, align 8, !tbaa !18
  %19 = tail call ptr @OPENSSL_sk_value(ptr noundef %18, i32 noundef %.09.i) #5
  %20 = load ptr, ptr %19, align 8, !tbaa !19
  %21 = tail call i32 @ASN1_INTEGER_cmp(ptr noundef %20, ptr noundef nonnull %3) #5
  %.not.i = icmp eq i32 %21, 0
  br i1 %.not.i, label %22, label %13

22:                                               ; preds = %.lr.ph.i
  %23 = getelementptr inbounds nuw i8, ptr %19, i64 8
  %24 = load ptr, ptr %23, align 8, !tbaa !21
  br label %SXNET_get_id_INTEGER.exit

SXNET_get_id_INTEGER.exit:                        ; preds = %13, %22, %8, %7
  %.0 = phi ptr [ null, %7 ], [ %24, %22 ], [ null, %8 ], [ null, %13 ]
  tail call void @ASN1_INTEGER_free(ptr noundef %3) #5
  ret ptr %.0
}